target datalayout = "e-m:e-p270:32:32-p271:32:32-p272:64:64-i64:64-i128:128-f80:128-n8:16:32:64-S128"
target triple = "x86_64-unknown-linux-gnu"

%"class.icu_75::Calendar" = type <{ %"class.icu_75::UObject", i8, i8, i8, i8, [24 x i32], [24 x i8], [24 x i32], i32, double, i8, [7 x i8], ptr, i32, i32, i32, i8, [3 x i8], i32, i32, i32, i32, i32, i32, i32, i32, [157 x i8], [157 x i8], [6 x i8] }>
%"class.icu_75::UObject" = type { ptr }

; Function Attrs: mustprogress nounwind uwtable
define linkonce_odr noundef i32 @_ZNK6icu_758Calendar11internalGetE19UCalendarDateFieldsi(ptr noundef nonnull align 8 dereferenceable(618) %this, i32 noundef %field, i32 noundef %defaultValue) #0 comdat align 2 {
entry:
  %this.addr = alloca ptr, align 8
  %field.addr = alloca i32, align 4
  %defaultValue.addr = alloca i32, align 4
  store ptr %this, ptr %this.addr, align 8
  store i32 %field, ptr %field.addr, align 4
  store i32 %defaultValue, ptr %defaultValue.addr, align 4
  %this1 = load ptr, ptr %this.addr, align 8
  %fStamp = getelementptr inbounds %"class.icu_75::Calendar", ptr %this1, i32 0, i32 7
  %0 = load i32, ptr %field.addr, align 4
  %idxprom = zext i32 %0 to i64
  %arrayidx = getelementptr inbounds [24 x i32], ptr %fStamp, i64 0, i64 %idxprom
  %1 = load i32, ptr %arrayidx, align 4
  %cmp = icmp sgt i32 %1, 0
  br i1 %cmp, label %cond.true, label %cond.false

cond.true:                                        ; preds = %entry
  %fFields = getelementptr inbounds %"class.icu_75::Calendar", ptr %this1, i32 0, i32 5
  %2 = load i32, ptr %field.addr, align 4
  %idxprom2 = zext i32 %2 to i64
  %arrayidx3 = getelementptr inbounds [24 x i32], ptr %fFields, i64 0, i64 %idxprom2
  %3 = load i32, ptr %arrayidx3, align 4
  br label %cond.end

cond.false:                                       ; preds = %entry
  %4 = load i32, ptr %defaultValue.addr, align 4
  br label %cond.end

cond.end:                                         ; preds = %cond.false, %cond.true
  %cond = phi i32 [ %3, %cond.true ], [ %4, %cond.false ]
  ret i32 %cond
}

; Function Attrs: mustprogress uwtable
define noundef i32 @_ZN6icu_7514TaiwanCalendar21handleGetExtendedYearEv(ptr noundef nonnull align 8 dereferenceable(654) %this) unnamed_addr #1 align 2 {
entry:
  %this.addr = alloca ptr, align 8
  %year = alloca i32, align 4
  %era = alloca i32, align 4
  store ptr %this, ptr %this.addr, align 8
  %this1 = load ptr, ptr %this.addr, align 8
  store i32 1970, ptr %year, align 4
  %call = call noundef i32 @_ZNK6icu_758Calendar10newerFieldE19UCalendarDateFieldsS1_(ptr noundef nonnull align 8 dereferenceable(618) %this1, i32 noundef 19, i32 noundef 1)
  %cmp = icmp eq i32 %call, 19
  br i1 %cmp, label %land.lhs.true, label %if.else

land.lhs.true:                                    ; preds = %entry
  %call2 = call noundef i32 @_ZNK6icu_758Calendar10newerFieldE19UCalendarDateFieldsS1_(ptr noundef nonnull align 8 dereferenceable(618) %this1, i32 noundef 19, i32 noundef 0)
  %cmp3 = icmp eq i32 %call2, 19
  br i1 %cmp3, label %if.then, label %if.else

if.then:                                          ; preds = %land.lhs.true
  %call4 = call noundef i32 @_ZNK6icu_758Calendar11internalGetE19UCalendarDateFieldsi(ptr noundef nonnull align 8 dereferenceable(618) %this1, i32 noundef 19, i32 noundef 1970)
  store i32 %call4, ptr %year, align 4
  br label %if.end15

if.else:                                          ; preds = %land.lhs.true, %entry
  %call5 = call noundef i32 @_ZNK6icu_758Calendar11internalGetE19UCalendarDateFieldsi(ptr noundef nonnull align 8 dereferenceable(618) %this1, i32 noundef 0, i32 noundef 1)
  store i32 %call5, ptr %era, align 4
  %0 = load i32, ptr %era, align 4
  %cmp6 = icmp eq i32 %0, 1
  br i1 %cmp6, label %if.then7, label %if.else9

if.then7:                                         ; preds = %if.else
  %call8 = call noundef i32 @_ZNK6icu_758Calendar11internalGetE19UCalendarDateFieldsi(ptr noundef nonnull align 8 dereferenceable(618) %this1, i32 noundef 1, i32 noundef 1)
  %add = add nsw i32 %call8, 1911
  store i32 %add, ptr %year, align 4
  br label %if.end14

if.else9:                                         ; preds = %if.else
  %1 = load i32, ptr %era, align 4
  %cmp10 = icmp eq i32 %1, 0
  br i1 %cmp10, label %if.then11, label %if.end

if.then11:                                        ; preds = %if.else9
  %call12 = call noundef i32 @_ZNK6icu_758Calendar11internalGetE19UCalendarDateFieldsi(ptr noundef nonnull align 8 dereferenceable(618) %this1, i32 noundef 1, i32 noundef 1)
  %sub = sub nsw i32 1, %call12
  %add13 = add nsw i32 %sub, 1911
  store i32 %add13, ptr %year, align 4
  br label %if.end

if.end:                                           ; preds = %if.then11, %if.else9
  br label %if.end14

if.end14:                                         ; preds = %if.end, %if.then7
  br label %if.end15

if.end15:                                         ; preds = %if.end14, %if.then
  %2 = load i32, ptr %year, align 4
  ret i32 %2
}